; Function Attrs: mustprogress nounwind uwtable
define hidden void @_ZN19OpenColorIO_v2_5dev19FixedFunctionOpDataD2Ev(ptr noundef nonnull align 8 dereferenceable(200) initializes((0, 8)) %0) unnamed_addr #5 align 2 personality ptr @__gxx_personality_v0 {
  store ptr getelementptr inbounds nuw inrange(-16, 88) (i8, ptr @_ZTVN19OpenColorIO_v2_5dev19FixedFunctionOpDataE, i64 16), ptr %0, align 8, !tbaa !13
  %2 = getelementptr inbounds nuw i8, ptr %0, i64 176
  %3 = load ptr, ptr %2, align 8, !tbaa !38
  %.not.i.i.i = icmp eq ptr %3, null
  br i1 %.not.i.i.i, label %_ZNSt6vectorIdSaIdEED2Ev.exit, label %4

4:                                                ; preds = %1
  %5 = getelementptr inbounds nuw i8, ptr %0, i64 192
  %6 = load ptr, ptr %5, align 8, !tbaa !39
  %7 = ptrtoint ptr %6 to i64
  %8 = ptrtoint ptr %3 to i64
  %9 = sub i64 %7, %8
  tail call void @_ZdlPvm(ptr noundef nonnull %3, i64 noundef %9) #20
  br label %_ZNSt6vectorIdSaIdEED2Ev.exit

_ZNSt6vectorIdSaIdEED2Ev.exit:                    ; preds = %1, %4
  store ptr getelementptr inbounds nuw inrange(-16, 88) (i8, ptr @_ZTVN19OpenColorIO_v2_5dev6OpDataE, i64 16), ptr %0, align 8, !tbaa !13
  %10 = getelementptr inbounds nuw i8, ptr %0, i64 48
  tail call void @_ZN19OpenColorIO_v2_5dev18FormatMetadataImplD1Ev(ptr noundef nonnull align 8 dereferenceable(120) %10) #19
  ret void
}